target datalayout = "e-m:e-p270:32:32-p271:32:32-p272:64:64-i64:64-i128:128-f80:128-n8:16:32:64-S128"
target triple = "x86_64-pc-linux-gnu"

%"struct.boost::move_detail::addr_impl_ref.92" = type { ptr }
%"struct.ue2::(anonymous namespace)::path" = type <{ %"class.boost::container::small_vector.107", i16, [6 x i8] }>
%"class.boost::container::small_vector.107" = type { %"class.boost::container::small_vector_base.108", %"struct.boost::container::small_vector_storage.114" }
%"class.boost::container::small_vector_base.108" = type { %"class.boost::container::vector.109", %"union.boost::move_detail::aligned_struct_wrapper.112" }
%"class.boost::container::vector.109" = type { %"struct.boost::container::vector_alloc_holder.110" }
%"struct.boost::container::vector_alloc_holder.110" = type { ptr, i64, i64 }
%"union.boost::move_detail::aligned_struct_wrapper.112" = type { %"struct.boost::move_detail::aligned_struct.113" }
%"struct.boost::move_detail::aligned_struct.113" = type { [32 x i8] }
%"struct.boost::container::small_vector_storage.114" = type { [4 x %"union.boost::move_detail::aligned_struct_wrapper.112"] }

; Function Attrs: inlinehint mustprogress nounwind uwtable
define linkonce_odr hidden noundef ptr @_ZN5boost11move_detail14addressof_implIKhE1fERS2_l(ptr noundef nonnull align 1 dereferenceable(1) %0, i64 noundef %1) #4 comdat align 2 {
  %3 = alloca ptr, align 8
  %4 = alloca i64, align 8
  store ptr %0, ptr %3, align 8
  store i64 %1, ptr %4, align 8
  %5 = load ptr, ptr %3, align 8
  ret ptr %5
}

; Function Attrs: inlinehint mustprogress nounwind uwtable
define linkonce_odr hidden noundef nonnull align 1 dereferenceable(1) ptr @_ZNK5boost11move_detail13addr_impl_refIKhEcvRS2_Ev(ptr noundef nonnull align 8 dereferenceable(8) %0) #4 comdat align 2 {
  %2 = alloca ptr, align 8
  store ptr %0, ptr %2, align 8
  %3 = load ptr, ptr %2, align 8
  %4 = getelementptr inbounds nuw %"struct.boost::move_detail::addr_impl_ref.92", ptr %3, i32 0, i32 0
  %5 = load ptr, ptr %4, align 8
  ret ptr %5
}

; Function Attrs: inlinehint mustprogress nounwind uwtable
define linkonce_odr hidden void @_ZN5boost11move_detail13addr_impl_refIKhEC2ERS2_(ptr noundef nonnull align 8 dereferenceable(8) %0, ptr noundef nonnull align 1 dereferenceable(1) %1) unnamed_addr #4 comdat align 2 {
  %3 = alloca ptr, align 8
  %4 = alloca ptr, align 8
  store ptr %0, ptr %3, align 8
  store ptr %1, ptr %4, align 8
  %5 = load ptr, ptr %3, align 8
  %6 = getelementptr inbounds nuw %"struct.boost::move_detail::addr_impl_ref.92", ptr %5, i32 0, i32 0
  %7 = load ptr, ptr %4, align 8
  store ptr %7, ptr %6, align 8
  ret void
}

; Function Attrs: inlinehint mustprogress uwtable
define linkonce_odr hidden noundef ptr @_ZN5boost11move_detail9addressofIKhEEPT_RS3_(ptr noundef nonnull align 1 dereferenceable(1) %0) #1 comdat {
  %2 = alloca ptr, align 8
  %3 = alloca %"struct.boost::move_detail::addr_impl_ref.92", align 8
  store ptr %0, ptr %2, align 8
  call void @llvm.lifetime.start.p0(i64 8, ptr %3) #21
  %4 = load ptr, ptr %2, align 8
  call void @_ZN5boost11move_detail13addr_impl_refIKhEC2ERS2_(ptr noundef nonnull align 8 dereferenceable(8) %3, ptr noundef nonnull align 1 dereferenceable(1) %4)
  %5 = call noundef nonnull align 1 dereferenceable(1) ptr @_ZNK5boost11move_detail13addr_impl_refIKhEcvRS2_Ev(ptr noundef nonnull align 8 dereferenceable(8) %3)
  %6 = call noundef ptr @_ZN5boost11move_detail14addressof_implIKhE1fERS2_l(ptr noundef nonnull align 1 dereferenceable(1) %5, i64 noundef 0)
  call void @llvm.lifetime.end.p0(i64 8, ptr %3) #21
  ret ptr %6
}

; Function Attrs: inlinehint mustprogress nounwind uwtable
define linkonce_odr hidden noundef ptr @_ZN5boost9intrusive14pointer_traitsIPKN3ue29CharReachEE16static_cast_fromIKvEES5_PT_(ptr noundef %0) #4 comdat align 2 {
  %2 = alloca ptr, align 8
  store ptr %0, ptr %2, align 8
  %3 = load ptr, ptr %2, align 8
  ret ptr %3
}

; Function Attrs: inlinehint mustprogress uwtable
define linkonce_odr hidden noundef ptr @_ZN5boost9intrusive14pointer_traitsIPKhE10pointer_toERS2_(ptr noundef nonnull align 1 dereferenceable(1) %0) #1 comdat align 2 {
  %2 = alloca ptr, align 8
  store ptr %0, ptr %2, align 8
  %3 = load ptr, ptr %2, align 8
  %4 = call noundef ptr @_ZN5boost11move_detail9addressofIKhEEPT_RS3_(ptr noundef nonnull align 1 dereferenceable(1) %3)
  ret ptr %4
}

; Function Attrs: inlinehint mustprogress nounwind uwtable
define linkonce_odr hidden noundef ptr @_ZNK5boost9container17small_vector_baseIN3ue29CharReachENS0_13new_allocatorIS3_EEvE16internal_storageEv(ptr noundef nonnull align 8 dereferenceable(56) %0) #4 comdat align 2 personality ptr @__gxx_personality_v0 {
  %2 = alloca ptr, align 8
  %3 = alloca ptr, align 8
  store ptr %0, ptr %2, align 8
  %4 = load ptr, ptr %2, align 8
  call void @llvm.lifetime.start.p0(i64 8, ptr %3) #21
  %5 = getelementptr inbounds nuw %"class.boost::container::small_vector_base.108", ptr %4, i32 0, i32 1
  %6 = getelementptr inbounds [32 x i8], ptr %5, i64 0, i64 0
  %7 = invoke noundef ptr @_ZN5boost9intrusive14pointer_traitsIPKhE10pointer_toERS2_(ptr noundef nonnull align 1 dereferenceable(1) %6)
          to label %8 unwind label %12

8:                                                ; preds = %1
  store ptr %7, ptr %3, align 8
  %9 = load ptr, ptr %3, align 8
  %10 = invoke noundef ptr @_ZN5boost9intrusive14pointer_traitsIPKN3ue29CharReachEE16static_cast_fromIKvEES5_PT_(ptr noundef %9)
          to label %11 unwind label %12

11:                                               ; preds = %8
  call void @llvm.lifetime.end.p0(i64 8, ptr %3) #21
  ret ptr %10

12:                                               ; preds = %8, %1
  %13 = landingpad { ptr, i32 }
          catch ptr null
  %14 = extractvalue { ptr, i32 } %13, 0
  call void @__clang_call_terminate(ptr %14) #22
  unreachable
}

; Function Attrs: mustprogress nounwind uwtable
define linkonce_odr hidden void @_ZN5boost9container13new_allocatorIN3ue29CharReachEE10deallocateEPS3_m(ptr noundef nonnull align 1 dereferenceable(1) %0, ptr noundef %1, i64 noundef %2) #3 comdat align 2 {
  %4 = alloca ptr, align 8
  %5 = alloca ptr, align 8
  %6 = alloca i64, align 8
  store ptr %0, ptr %4, align 8
  store ptr %1, ptr %5, align 8
  store i64 %2, ptr %6, align 8
  %7 = load ptr, ptr %5, align 8
  call void @_ZdlPv(ptr noundef %7) #21
  ret void
}

; Function Attrs: inlinehint mustprogress nounwind uwtable
define linkonce_odr hidden noundef ptr @_ZNK5boost9container22small_vector_allocatorIN3ue29CharReachENS0_13new_allocatorIvEEvE16internal_storageEv(ptr noundef nonnull align 1 dereferenceable(1) %0) #4 comdat align 2 {
  %2 = alloca ptr, align 8
  %3 = alloca ptr, align 8
  %4 = alloca ptr, align 8
  %5 = alloca ptr, align 8
  store ptr %0, ptr %2, align 8
  %6 = load ptr, ptr %2, align 8
  call void @llvm.lifetime.start.p0(i64 8, ptr %3) #21
  store ptr %6, ptr %3, align 8
  call void @llvm.lifetime.start.p0(i64 8, ptr %4) #21
  %7 = load ptr, ptr %3, align 8
  store ptr %7, ptr %4, align 8
  call void @llvm.lifetime.start.p0(i64 8, ptr %5) #21
  %8 = load ptr, ptr %4, align 8
  store ptr %8, ptr %5, align 8
  %9 = load ptr, ptr %5, align 8
  %10 = call noundef ptr @_ZNK5boost9container17small_vector_baseIN3ue29CharReachENS0_13new_allocatorIS3_EEvE16internal_storageEv(ptr noundef nonnull align 8 dereferenceable(56) %9) #21
  call void @llvm.lifetime.end.p0(i64 8, ptr %5) #21
  call void @llvm.lifetime.end.p0(i64 8, ptr %4) #21
  call void @llvm.lifetime.end.p0(i64 8, ptr %3) #21
  ret ptr %10
}

; Function Attrs: inlinehint mustprogress nounwind uwtable
define linkonce_odr hidden void @_ZN5boost9container16allocator_traitsINS0_13new_allocatorIN3ue29CharReachEEEE10deallocateERS5_PS4_m(ptr noundef nonnull align 1 dereferenceable(1) %0, ptr noundef %1, i64 noundef %2) #4 comdat align 2 {
  %4 = alloca ptr, align 8
  %5 = alloca ptr, align 8
  %6 = alloca i64, align 8
  store ptr %0, ptr %4, align 8
  store ptr %1, ptr %5, align 8
  store i64 %2, ptr %6, align 8
  %7 = load ptr, ptr %4, align 8
  %8 = load ptr, ptr %5, align 8
  %9 = load i64, ptr %6, align 8
  call void @_ZN5boost9container13new_allocatorIN3ue29CharReachEE10deallocateEPS3_m(ptr noundef nonnull align 1 dereferenceable(1) %7, ptr noundef %8, i64 noundef %9) #21
  ret void
}

; Function Attrs: inlinehint mustprogress nounwind uwtable
define linkonce_odr hidden noundef nonnull align 1 dereferenceable(1) ptr @_ZN5boost9container22small_vector_allocatorIN3ue29CharReachENS0_13new_allocatorIvEEvE7as_baseEv(ptr noundef nonnull align 1 dereferenceable(1) %0) #4 comdat align 2 {
  %2 = alloca ptr, align 8
  store ptr %0, ptr %2, align 8
  %3 = load ptr, ptr %2, align 8
  ret ptr %3
}

; Function Attrs: inlinehint mustprogress uwtable
define linkonce_odr hidden noundef zeroext i1 @_ZNK5boost9container22small_vector_allocatorIN3ue29CharReachENS0_13new_allocatorIvEEvE19is_internal_storageEPKS3_(ptr noundef nonnull align 1 dereferenceable(1) %0, ptr noundef %1) #1 comdat align 2 {
  %3 = alloca ptr, align 8
  %4 = alloca ptr, align 8
  store ptr %0, ptr %3, align 8
  store ptr %1, ptr %4, align 8
  %5 = load ptr, ptr %3, align 8
  %6 = call noundef ptr @_ZNK5boost9container22small_vector_allocatorIN3ue29CharReachENS0_13new_allocatorIvEEvE16internal_storageEv(ptr noundef nonnull align 1 dereferenceable(1) %5)
  %7 = load ptr, ptr %4, align 8
  %8 = icmp eq ptr %6, %7
  ret i1 %8
}

; Function Attrs: mustprogress nounwind uwtable
define linkonce_odr hidden void @_ZN5boost9container22small_vector_allocatorIN3ue29CharReachENS0_13new_allocatorIvEEvE10deallocateEPS3_m(ptr noundef nonnull align 1 dereferenceable(1) %0, ptr noundef %1, i64 noundef %2) #3 comdat align 2 personality ptr @__gxx_personality_v0 {
  %4 = alloca ptr, align 8
  %5 = alloca ptr, align 8
  %6 = alloca i64, align 8
  store ptr %0, ptr %4, align 8
  store ptr %1, ptr %5, align 8
  store i64 %2, ptr %6, align 8
  %7 = load ptr, ptr %4, align 8
  %8 = load ptr, ptr %5, align 8
  %9 = invoke noundef zeroext i1 @_ZNK5boost9container22small_vector_allocatorIN3ue29CharReachENS0_13new_allocatorIvEEvE19is_internal_storageEPKS3_(ptr noundef nonnull align 1 dereferenceable(1) %7, ptr noundef %8)
          to label %10 unwind label %17

10:                                               ; preds = %3
  br i1 %9, label %16, label %11

11:                                               ; preds = %10
  %12 = call noundef nonnull align 1 dereferenceable(1) ptr @_ZN5boost9container22small_vector_allocatorIN3ue29CharReachENS0_13new_allocatorIvEEvE7as_baseEv(ptr noundef nonnull align 1 dereferenceable(1) %7) #21
  %13 = load ptr, ptr %5, align 8
  %14 = load i64, ptr %6, align 8
  invoke void @_ZN5boost9container16allocator_traitsINS0_13new_allocatorIN3ue29CharReachEEEE10deallocateERS5_PS4_m(ptr noundef nonnull align 1 dereferenceable(1) %12, ptr noundef %13, i64 noundef %14)
          to label %15 unwind label %17

15:                                               ; preds = %11
  br label %16

16:                                               ; preds = %15, %10
  ret void

17:                                               ; preds = %11, %3
  %18 = landingpad { ptr, i32 }
          catch ptr null
  %19 = extractvalue { ptr, i32 } %18, 0
  call void @__clang_call_terminate(ptr %19) #22
  unreachable
}

; Function Attrs: inlinehint mustprogress nounwind uwtable
define linkonce_odr hidden void @_ZN5boost9container16allocator_traitsINS0_22small_vector_allocatorIN3ue29CharReachENS0_13new_allocatorIvEEvEEE10deallocateERS7_PS4_m(ptr noundef nonnull align 1 dereferenceable(1) %0, ptr noundef %1, i64 noundef %2) #4 comdat align 2 {
  %4 = alloca ptr, align 8
  %5 = alloca ptr, align 8
  %6 = alloca i64, align 8
  store ptr %0, ptr %4, align 8
  store ptr %1, ptr %5, align 8
  store i64 %2, ptr %6, align 8
  %7 = load ptr, ptr %4, align 8
  %8 = load ptr, ptr %5, align 8
  %9 = load i64, ptr %6, align 8
  call void @_ZN5boost9container22small_vector_allocatorIN3ue29CharReachENS0_13new_allocatorIvEEvE10deallocateEPS3_m(ptr noundef nonnull align 1 dereferenceable(1) %7, ptr noundef %8, i64 noundef %9) #21
  ret void
}

; Function Attrs: inlinehint mustprogress uwtable
define linkonce_odr hidden void @_ZN5boost9container19vector_alloc_holderINS0_22small_vector_allocatorIN3ue29CharReachENS0_13new_allocatorIvEEvEEmNS_11move_detail17integral_constantIjLj1EEEE10deallocateERKPS4_m(ptr noundef nonnull align 8 dereferenceable(24) %0, ptr noundef nonnull align 8 dereferenceable(8) %1, i64 noundef %2) #1 comdat align 2 {
  %4 = alloca ptr, align 8
  %5 = alloca ptr, align 8
  %6 = alloca i64, align 8
  store ptr %0, ptr %4, align 8
  store ptr %1, ptr %5, align 8
  store i64 %2, ptr %6, align 8
  %7 = load ptr, ptr %4, align 8
  %8 = call noundef nonnull align 1 dereferenceable(1) ptr @_ZN5boost9container19vector_alloc_holderINS0_22small_vector_allocatorIN3ue29CharReachENS0_13new_allocatorIvEEvEEmNS_11move_detail17integral_constantIjLj1EEEE5allocEv(ptr noundef nonnull align 8 dereferenceable(24) %7) #21
  %9 = load ptr, ptr %5, align 8
  %10 = load ptr, ptr %9, align 8
  %11 = load i64, ptr %6, align 8
  call void @_ZN5boost9container16allocator_traitsINS0_22small_vector_allocatorIN3ue29CharReachENS0_13new_allocatorIvEEvEEE10deallocateERS7_PS4_m(ptr noundef nonnull align 1 dereferenceable(1) %8, ptr noundef %10, i64 noundef %11)
  ret void
}

; Function Attrs: inlinehint mustprogress nounwind uwtable
define linkonce_odr hidden noundef ptr @_ZN5boost7movelib14to_raw_pointerIN3ue29CharReachEEEPT_S5_(ptr noundef %0) #4 comdat {
  %2 = alloca ptr, align 8
  store ptr %0, ptr %2, align 8
  %3 = load ptr, ptr %2, align 8
  ret ptr %3
}

; Function Attrs: inlinehint mustprogress nounwind uwtable
define linkonce_odr hidden noundef nonnull align 8 dereferenceable(8) ptr @_ZNK5boost9container19vector_alloc_holderINS0_22small_vector_allocatorIN3ue29CharReachENS0_13new_allocatorIvEEvEEmNS_11move_detail17integral_constantIjLj1EEEE5startEv(ptr noundef nonnull align 8 dereferenceable(24) %0) #4 comdat align 2 {
  %2 = alloca ptr, align 8
  store ptr %0, ptr %2, align 8
  %3 = load ptr, ptr %2, align 8
  %4 = getelementptr inbounds nuw %"struct.boost::container::vector_alloc_holder.110", ptr %3, i32 0, i32 0
  ret ptr %4
}

; Function Attrs: inlinehint mustprogress nounwind uwtable
define linkonce_odr hidden noundef nonnull align 1 dereferenceable(1) ptr @_ZN5boost9container19vector_alloc_holderINS0_22small_vector_allocatorIN3ue29CharReachENS0_13new_allocatorIvEEvEEmNS_11move_detail17integral_constantIjLj1EEEE5allocEv(ptr noundef nonnull align 8 dereferenceable(24) %0) #4 comdat align 2 {
  %2 = alloca ptr, align 8
  store ptr %0, ptr %2, align 8
  %3 = load ptr, ptr %2, align 8
  ret ptr %3
}

; Function Attrs: noinline noreturn nounwind uwtable
define linkonce_odr hidden void @__clang_call_terminate(ptr noundef %0) #7 comdat {
  %2 = call ptr @__cxa_begin_catch(ptr %0) #21
  call void @_ZSt9terminatev() #22
  unreachable
}

; Function Attrs: inlinehint mustprogress nounwind uwtable
define linkonce_odr hidden void @_ZN5boost9container19vector_alloc_holderINS0_22small_vector_allocatorIN3ue29CharReachENS0_13new_allocatorIvEEvEEmNS_11move_detail17integral_constantIjLj1EEEED2Ev(ptr noundef nonnull align 8 dereferenceable(24) %0) unnamed_addr #4 comdat align 2 personality ptr @__gxx_personality_v0 {
  %2 = alloca ptr, align 8
  store ptr %0, ptr %2, align 8
  %3 = load ptr, ptr %2, align 8
  %4 = getelementptr inbounds nuw %"struct.boost::container::vector_alloc_holder.110", ptr %3, i32 0, i32 2
  %5 = load i64, ptr %4, align 8
  %6 = icmp ne i64 %5, 0
  br i1 %6, label %7, label %12

7:                                                ; preds = %1
  %8 = getelementptr inbounds nuw %"struct.boost::container::vector_alloc_holder.110", ptr %3, i32 0, i32 0
  %9 = getelementptr inbounds nuw %"struct.boost::container::vector_alloc_holder.110", ptr %3, i32 0, i32 2
  %10 = load i64, ptr %9, align 8
  invoke void @_ZN5boost9container19vector_alloc_holderINS0_22small_vector_allocatorIN3ue29CharReachENS0_13new_allocatorIvEEvEEmNS_11move_detail17integral_constantIjLj1EEEE10deallocateERKPS4_m(ptr noundef nonnull align 8 dereferenceable(24) %3, ptr noundef nonnull align 8 dereferenceable(8) %8, i64 noundef %10)
          to label %11 unwind label %13

11:                                               ; preds = %7
  br label %12

12:                                               ; preds = %11, %1
  ret void

13:                                               ; preds = %7
  %14 = landingpad { ptr, i32 }
          catch ptr null
  %15 = extractvalue { ptr, i32 } %14, 0
  call void @__clang_call_terminate(ptr %15) #22
  unreachable
}

; Function Attrs: inlinehint mustprogress nounwind uwtable
define linkonce_odr hidden void @_ZN5boost9container15destroy_alloc_nINS0_22small_vector_allocatorIN3ue29CharReachENS0_13new_allocatorIvEEvEEPS4_mEENS0_3dtl32enable_if_trivially_destructibleIT0_vE4typeERT_SB_T1_(ptr noundef nonnull align 1 dereferenceable(1) %0, ptr noundef %1, i64 noundef %2) #4 comdat {
  %4 = alloca ptr, align 8
  %5 = alloca ptr, align 8
  %6 = alloca i64, align 8
  store ptr %0, ptr %4, align 8
  store ptr %1, ptr %5, align 8
  store i64 %2, ptr %6, align 8
  ret void
}

; Function Attrs: inlinehint mustprogress uwtable
define linkonce_odr hidden noundef ptr @_ZNK5boost9container6vectorIN3ue29CharReachENS0_22small_vector_allocatorIS3_NS0_13new_allocatorIvEEvEEvE14priv_raw_beginEv(ptr noundef nonnull align 8 dereferenceable(24) %0) #1 comdat align 2 {
  %2 = alloca ptr, align 8
  store ptr %0, ptr %2, align 8
  %3 = load ptr, ptr %2, align 8
  %4 = getelementptr inbounds nuw %"class.boost::container::vector.109", ptr %3, i32 0, i32 0
  %5 = call noundef nonnull align 8 dereferenceable(8) ptr @_ZNK5boost9container19vector_alloc_holderINS0_22small_vector_allocatorIN3ue29CharReachENS0_13new_allocatorIvEEvEEmNS_11move_detail17integral_constantIjLj1EEEE5startEv(ptr noundef nonnull align 8 dereferenceable(24) %4) #21
  %6 = load ptr, ptr %5, align 8
  %7 = call noundef ptr @_ZN5boost7movelib14to_raw_pointerIN3ue29CharReachEEEPT_S5_(ptr noundef %6)
  ret ptr %7
}

; Function Attrs: inlinehint mustprogress nounwind uwtable
define linkonce_odr hidden noundef nonnull align 1 dereferenceable(1) ptr @_ZN5boost9container6vectorIN3ue29CharReachENS0_22small_vector_allocatorIS3_NS0_13new_allocatorIvEEvEEvE20get_stored_allocatorEv(ptr noundef nonnull align 8 dereferenceable(24) %0) #4 comdat align 2 {
  %2 = alloca ptr, align 8
  store ptr %0, ptr %2, align 8
  %3 = load ptr, ptr %2, align 8
  %4 = getelementptr inbounds nuw %"class.boost::container::vector.109", ptr %3, i32 0, i32 0
  %5 = call noundef nonnull align 1 dereferenceable(1) ptr @_ZN5boost9container19vector_alloc_holderINS0_22small_vector_allocatorIN3ue29CharReachENS0_13new_allocatorIvEEvEEmNS_11move_detail17integral_constantIjLj1EEEE5allocEv(ptr noundef nonnull align 8 dereferenceable(24) %4) #21
  ret ptr %5
}

; Function Attrs: mustprogress nounwind uwtable
define linkonce_odr hidden void @_ZN5boost9container6vectorIN3ue29CharReachENS0_22small_vector_allocatorIS3_NS0_13new_allocatorIvEEvEEvED2Ev(ptr noundef nonnull align 8 dereferenceable(24) %0) unnamed_addr #3 comdat align 2 personality ptr @__gxx_personality_v0 {
  %2 = alloca ptr, align 8
  store ptr %0, ptr %2, align 8
  %3 = load ptr, ptr %2, align 8
  %4 = call noundef nonnull align 1 dereferenceable(1) ptr @_ZN5boost9container6vectorIN3ue29CharReachENS0_22small_vector_allocatorIS3_NS0_13new_allocatorIvEEvEEvE20get_stored_allocatorEv(ptr noundef nonnull align 8 dereferenceable(24) %3) #21
  %5 = invoke noundef ptr @_ZNK5boost9container6vectorIN3ue29CharReachENS0_22small_vector_allocatorIS3_NS0_13new_allocatorIvEEvEEvE14priv_raw_beginEv(ptr noundef nonnull align 8 dereferenceable(24) %3)
          to label %6 unwind label %12

6:                                                ; preds = %1
  %7 = getelementptr inbounds nuw %"class.boost::container::vector.109", ptr %3, i32 0, i32 0
  %8 = getelementptr inbounds nuw %"struct.boost::container::vector_alloc_holder.110", ptr %7, i32 0, i32 1
  %9 = load i64, ptr %8, align 8
  invoke void @_ZN5boost9container15destroy_alloc_nINS0_22small_vector_allocatorIN3ue29CharReachENS0_13new_allocatorIvEEvEEPS4_mEENS0_3dtl32enable_if_trivially_destructibleIT0_vE4typeERT_SB_T1_(ptr noundef nonnull align 1 dereferenceable(1) %4, ptr noundef %5, i64 noundef %9)
          to label %10 unwind label %12

10:                                               ; preds = %6
  %11 = getelementptr inbounds nuw %"class.boost::container::vector.109", ptr %3, i32 0, i32 0
  call void @_ZN5boost9container19vector_alloc_holderINS0_22small_vector_allocatorIN3ue29CharReachENS0_13new_allocatorIvEEvEEmNS_11move_detail17integral_constantIjLj1EEEED2Ev(ptr noundef nonnull align 8 dereferenceable(24) %11) #21
  ret void

12:                                               ; preds = %6, %1
  %13 = landingpad { ptr, i32 }
          catch ptr null
  %14 = extractvalue { ptr, i32 } %13, 0
  call void @__clang_call_terminate(ptr %14) #22
  unreachable
}

; Function Attrs: inlinehint mustprogress nounwind uwtable
define internal void @_ZN3ue212_GLOBAL__N_14pathD2Ev(ptr noundef nonnull align 8 dereferenceable(186) %0) unnamed_addr #4 align 2 {
  %2 = alloca ptr, align 8
  store ptr %0, ptr %2, align 8
  %3 = load ptr, ptr %2, align 8
  %4 = getelementptr inbounds nuw %"struct.ue2::(anonymous namespace)::path", ptr %3, i32 0, i32 0
  call void @_ZN5boost9container6vectorIN3ue29CharReachENS0_22small_vector_allocatorIS3_NS0_13new_allocatorIvEEvEEvED2Ev(ptr noundef nonnull align 8 dereferenceable(184) %4) #21
  ret void
}

; Function Attrs: inlinehint mustprogress nounwind uwtable
define internal void @_ZSt8_DestroyIN3ue212_GLOBAL__N_14pathEEvPT_(ptr noundef %0) #4 {
  %2 = alloca ptr, align 8
  store ptr %0, ptr %2, align 8
  %3 = load ptr, ptr %2, align 8
  call void @_ZN3ue212_GLOBAL__N_14pathD2Ev(ptr noundef nonnull align 8 dereferenceable(186) %3) #21
  ret void
}

; Function Attrs: mustprogress uwtable
define internal void @_ZNSt12_Destroy_auxILb0EE9__destroyIPN3ue212_GLOBAL__N_14pathEEEvT_S6_(ptr noundef %0, ptr noundef %1) #0 align 2 {
  %3 = alloca ptr, align 8
  %4 = alloca ptr, align 8
  store ptr %0, ptr %3, align 8
  store ptr %1, ptr %4, align 8
  br label %5

5:                                                ; preds = %11, %2
  %6 = load ptr, ptr %3, align 8
  %7 = load ptr, ptr %4, align 8
  %8 = icmp ne ptr %6, %7
  br i1 %8, label %9, label %14

9:                                                ; preds = %5
  %10 = load ptr, ptr %3, align 8
  call void @_ZSt8_DestroyIN3ue212_GLOBAL__N_14pathEEvPT_(ptr noundef %10)
  br label %11

11:                                               ; preds = %9
  %12 = load ptr, ptr %3, align 8
  %13 = getelementptr inbounds nuw %"struct.ue2::(anonymous namespace)::path", ptr %12, i32 1
  store ptr %13, ptr %3, align 8
  br label %5, !llvm.loop !31

14:                                               ; preds = %5
  ret void
}

; Function Attrs: inlinehint mustprogress uwtable
define internal void @_ZSt8_DestroyIPN3ue212_GLOBAL__N_14pathEEvT_S4_(ptr noundef %0, ptr noundef %1) #1 {
  %3 = alloca ptr, align 8
  %4 = alloca ptr, align 8
  store ptr %0, ptr %3, align 8
  store ptr %1, ptr %4, align 8
  %5 = load ptr, ptr %3, align 8
  %6 = load ptr, ptr %4, align 8
  call void @_ZNSt12_Destroy_auxILb0EE9__destroyIPN3ue212_GLOBAL__N_14pathEEEvT_S6_(ptr noundef %5, ptr noundef %6)
  ret void
}

; Function Attrs: inlinehint mustprogress uwtable
define internal void @_ZSt8_DestroyIPN3ue212_GLOBAL__N_14pathES2_EvT_S4_RSaIT0_E(ptr noundef %0, ptr noundef %1, ptr noundef nonnull align 1 dereferenceable(1) %2) #1 {
  %4 = alloca ptr, align 8
  %5 = alloca ptr, align 8
  %6 = alloca ptr, align 8
  store ptr %0, ptr %4, align 8
  store ptr %1, ptr %5, align 8
  store ptr %2, ptr %6, align 8
  %7 = load ptr, ptr %4, align 8
  %8 = load ptr, ptr %5, align 8
  call void @_ZSt8_DestroyIPN3ue212_GLOBAL__N_14pathEEvT_S4_(ptr noundef %7, ptr noundef %8)
  ret void
}