; Function Attrs: inlinehint mustprogress nounwind uwtable
define internal fastcc void @_ZSt8_DestroyIPN3ue212_GLOBAL__N_14pathES2_EvT_S4_RSaIT0_E(ptr noundef readonly %0, ptr noundef readnone %1) unnamed_addr #6 personality ptr @__gxx_personality_v0 {
  %.not4.i.i = icmp eq ptr %0, %1
  br i1 %.not4.i.i, label %_ZSt8_DestroyIPN3ue212_GLOBAL__N_14pathEEvT_S4_.exit, label %.lr.ph.i.i

.lr.ph.i.i:                                       ; preds = %2, %_ZSt8_DestroyIN3ue212_GLOBAL__N_14pathEEvPT_.exit.i.i
  %.05.i.i = phi ptr [ %10, %_ZSt8_DestroyIN3ue212_GLOBAL__N_14pathEEvPT_.exit.i.i ], [ %0, %2 ]
  %3 = getelementptr inbounds nuw i8, ptr %.05.i.i, i64 16
  %4 = load i64, ptr %3, align 8
  %.not.i.i.i.i.i.i = icmp eq i64 %4, 0
  br i1 %.not.i.i.i.i.i.i, label %_ZSt8_DestroyIN3ue212_GLOBAL__N_14pathEEvPT_.exit.i.i, label %5

5:                                                ; preds = %.lr.ph.i.i
  %6 = load ptr, ptr %.05.i.i, align 8
  %7 = getelementptr inbounds nuw i8, ptr %.05.i.i, i64 24
  %8 = icmp eq ptr %7, %6
  br i1 %8, label %_ZSt8_DestroyIN3ue212_GLOBAL__N_14pathEEvPT_.exit.i.i, label %9

9:                                                ; preds = %5
  tail call void @_ZdlPv(ptr noundef %6) #22
  br label %_ZSt8_DestroyIN3ue212_GLOBAL__N_14pathEEvPT_.exit.i.i

_ZSt8_DestroyIN3ue212_GLOBAL__N_14pathEEvPT_.exit.i.i: ; preds = %9, %5, %.lr.ph.i.i
  %10 = getelementptr inbounds nuw i8, ptr %.05.i.i, i64 192
  %.not.i.i = icmp eq ptr %10, %1
  br i1 %.not.i.i, label %_ZSt8_DestroyIPN3ue212_GLOBAL__N_14pathEEvT_S4_.exit, label %.lr.ph.i.i, !llvm.loop !62

_ZSt8_DestroyIPN3ue212_GLOBAL__N_14pathEEvT_S4_.exit: ; preds = %_ZSt8_DestroyIN3ue212_GLOBAL__N_14pathEEvPT_.exit.i.i, %2
  ret void
}